; Function Attrs: mustprogress uwtable
define void @_ZN8QuantLib28BlackVolatilityTermStructureC2EjRKNS_8CalendarENS_21BusinessDayConventionERKNS_10DayCounterE(ptr noundef nonnull align 8 dereferenceable(68) %this, ptr noundef %vtt, i32 noundef %settlementDays, ptr noundef nonnull align 8 dereferenceable(16) %cal, i32 noundef %bdc, ptr noundef nonnull align 8 dereferenceable(16) %dc) unnamed_addr #3 align 2 {
entry:
  %0 = getelementptr inbounds i8, ptr %vtt, i64 8
  %1 = getelementptr inbounds i8, ptr %vtt, i64 16
  tail call void @_ZN8QuantLib23VolatilityTermStructureC2EjRKNS_8CalendarENS_21BusinessDayConventionERKNS_10DayCounterE(ptr noundef nonnull align 8 dereferenceable(68) %this, ptr noundef nonnull %1, i32 noundef %settlementDays, ptr noundef nonnull align 8 dereferenceable(16) %cal, i32 noundef %bdc, ptr noundef nonnull align 8 dereferenceable(16) %dc)
  %2 = load ptr, ptr %0, align 8
  store ptr %2, ptr %this, align 8, !tbaa !14
  %3 = getelementptr inbounds i8, ptr %vtt, i64 64
  %4 = load ptr, ptr %3, align 8
  %vbase.offset.ptr.i = getelementptr i8, ptr %2, i64 -24
  %vbase.offset.i = load i64, ptr %vbase.offset.ptr.i, align 8
  %add.ptr.i = getelementptr inbounds i8, ptr %this, i64 %vbase.offset.i
  store ptr %4, ptr %add.ptr.i, align 8, !tbaa !14
  %5 = getelementptr inbounds i8, ptr %vtt, i64 72
  %6 = load ptr, ptr %5, align 8
  %vtable3.i = load ptr, ptr %this, align 8, !tbaa !14
  %vbase.offset.ptr4.i = getelementptr i8, ptr %vtable3.i, i64 -32
  %vbase.offset5.i = load i64, ptr %vbase.offset.ptr4.i, align 8
  %add.ptr6.i = getelementptr inbounds i8, ptr %this, i64 %vbase.offset5.i
  store ptr %6, ptr %add.ptr6.i, align 8, !tbaa !14
  %7 = load ptr, ptr %vtt, align 8
  store ptr %7, ptr %this, align 8, !tbaa !14
  %8 = getelementptr inbounds i8, ptr %vtt, i64 80
  %9 = load ptr, ptr %8, align 8
  %vbase.offset.ptr = getelementptr i8, ptr %7, i64 -24
  %vbase.offset = load i64, ptr %vbase.offset.ptr, align 8
  %add.ptr = getelementptr inbounds i8, ptr %this, i64 %vbase.offset
  store ptr %9, ptr %add.ptr, align 8, !tbaa !14
  %10 = getelementptr inbounds i8, ptr %vtt, i64 88
  %11 = load ptr, ptr %10, align 8
  %vtable3 = load ptr, ptr %this, align 8, !tbaa !14
  %vbase.offset.ptr4 = getelementptr i8, ptr %vtable3, i64 -32
  %vbase.offset5 = load i64, ptr %vbase.offset.ptr4, align 8
  %add.ptr6 = getelementptr inbounds i8, ptr %this, i64 %vbase.offset5
  store ptr %11, ptr %add.ptr6, align 8, !tbaa !14
  ret void
}